target datalayout = "e-m:e-p270:32:32-p271:32:32-p272:64:64-i64:64-i128:128-f80:128-n8:16:32:64-S128"
target triple = "x86_64-pc-linux-gnu"

%struct.evp_pkey_st = type { i32, i32, ptr, ptr, ptr, %union.legacy_pkey_st, %union.legacy_pkey_st, %struct.CRYPTO_REF_COUNT, ptr, ptr, i32, i8, %struct.crypto_ex_data_st, ptr, ptr, i64, ptr, i64, %struct.anon }
%union.legacy_pkey_st = type { ptr }
%struct.CRYPTO_REF_COUNT = type { i32 }
%struct.crypto_ex_data_st = type { ptr, ptr }
%struct.anon = type { i32, i32, i32 }
%struct.evp_pkey_asn1_method_st = type { i32, i32, i64, ptr, ptr, ptr, ptr, ptr, ptr, ptr, ptr, ptr, ptr, ptr, ptr, ptr, ptr, ptr, ptr, ptr, ptr, ptr, ptr, ptr, ptr, ptr, ptr, ptr, ptr, ptr, ptr, ptr, ptr, ptr, ptr, ptr, ptr, ptr, ptr, ptr, ptr }

@.str = private unnamed_addr constant [30 x i8] c"../openssl/crypto/evp/p_lib.c\00", align 1
@__func__.EVP_PKEY_dup = private unnamed_addr constant [13 x i8] c"EVP_PKEY_dup\00", align 1

; Function Attrs: inlinehint nounwind uwtable
define internal ptr @ossl_check_X509_ATTRIBUTE_freefunc_type(ptr noundef %0) #3 {
  %2 = alloca ptr, align 8
  store ptr %0, ptr %2, align 8, !tbaa !31
  %3 = load ptr, ptr %2, align 8, !tbaa !31
  ret ptr %3
}

; Function Attrs: inlinehint nounwind uwtable
define internal ptr @ossl_check_X509_ATTRIBUTE_sk_type(ptr noundef %0) #3 {
  %2 = alloca ptr, align 8
  store ptr %0, ptr %2, align 8, !tbaa !140
  %3 = load ptr, ptr %2, align 8, !tbaa !140
  ret ptr %3
}

; Function Attrs: inlinehint nounwind uwtable
define internal void @CRYPTO_FREE_REF(ptr noundef %0) #3 {
  %2 = alloca ptr, align 8
  store ptr %0, ptr %2, align 8, !tbaa !31
  ret void
}

; Function Attrs: inlinehint nounwind uwtable
define internal i32 @CRYPTO_DOWN_REF(ptr noundef %0, ptr noundef %1) #3 {
  %3 = alloca ptr, align 8
  %4 = alloca ptr, align 8
  %5 = alloca i32, align 4
  %6 = alloca i32, align 4
  store ptr %0, ptr %3, align 8, !tbaa !31
  store ptr %1, ptr %4, align 8, !tbaa !129
  %7 = load ptr, ptr %3, align 8, !tbaa !31
  %8 = getelementptr inbounds nuw %struct.CRYPTO_REF_COUNT, ptr %7, i32 0, i32 0
  store i32 1, ptr %5, align 4, !tbaa !8
  %9 = load i32, ptr %5, align 4
  %10 = atomicrmw sub ptr %8, i32 %9 release, align 4
  store i32 %10, ptr %6, align 4
  %11 = load i32, ptr %6, align 4, !tbaa !8
  %12 = sub nsw i32 %11, 1
  %13 = load ptr, ptr %4, align 8, !tbaa !129
  store i32 %12, ptr %13, align 4, !tbaa !8
  %14 = load ptr, ptr %4, align 8, !tbaa !129
  %15 = load i32, ptr %14, align 4, !tbaa !8
  %16 = icmp eq i32 %15, 0
  br i1 %16, label %17, label %18

17:                                               ; preds = %2
  fence acquire
  br label %18

18:                                               ; preds = %17, %2
  ret i32 1
}

; Function Attrs: nounwind uwtable
define void @EVP_PKEY_free(ptr noundef %0) #0 {
  %2 = alloca ptr, align 8
  %3 = alloca i32, align 4
  %4 = alloca i32, align 4
  store ptr %0, ptr %2, align 8, !tbaa !3
  call void @llvm.lifetime.start.p0(i64 4, ptr %3) #8
  %5 = load ptr, ptr %2, align 8, !tbaa !3
  %6 = icmp eq ptr %5, null
  br i1 %6, label %7, label %8

7:                                                ; preds = %1
  store i32 1, ptr %4, align 4
  br label %31

8:                                                ; preds = %1
  %9 = load ptr, ptr %2, align 8, !tbaa !3
  %10 = getelementptr inbounds nuw %struct.evp_pkey_st, ptr %9, i32 0, i32 7
  %11 = call i32 @CRYPTO_DOWN_REF(ptr noundef %10, ptr noundef %3)
  %12 = load i32, ptr %3, align 4, !tbaa !8
  %13 = icmp sgt i32 %12, 0
  br i1 %13, label %14, label %15

14:                                               ; preds = %8
  store i32 1, ptr %4, align 4
  br label %31

15:                                               ; preds = %8
  %16 = load ptr, ptr %2, align 8, !tbaa !3
  call void @evp_pkey_free_it(ptr noundef %16)
  %17 = load ptr, ptr %2, align 8, !tbaa !3
  %18 = load ptr, ptr %2, align 8, !tbaa !3
  %19 = getelementptr inbounds nuw %struct.evp_pkey_st, ptr %18, i32 0, i32 12
  call void @CRYPTO_free_ex_data(i32 noundef 17, ptr noundef %17, ptr noundef %19)
  %20 = load ptr, ptr %2, align 8, !tbaa !3
  %21 = getelementptr inbounds nuw %struct.evp_pkey_st, ptr %20, i32 0, i32 8
  %22 = load ptr, ptr %21, align 8, !tbaa !60
  call void @CRYPTO_THREAD_lock_free(ptr noundef %22)
  %23 = load ptr, ptr %2, align 8, !tbaa !3
  %24 = getelementptr inbounds nuw %struct.evp_pkey_st, ptr %23, i32 0, i32 7
  call void @CRYPTO_FREE_REF(ptr noundef %24)
  %25 = load ptr, ptr %2, align 8, !tbaa !3
  %26 = getelementptr inbounds nuw %struct.evp_pkey_st, ptr %25, i32 0, i32 9
  %27 = load ptr, ptr %26, align 8, !tbaa !65
  %28 = call ptr @ossl_check_X509_ATTRIBUTE_sk_type(ptr noundef %27)
  %29 = call ptr @ossl_check_X509_ATTRIBUTE_freefunc_type(ptr noundef @X509_ATTRIBUTE_free)
  call void @OPENSSL_sk_pop_free(ptr noundef %28, ptr noundef %29)
  %30 = load ptr, ptr %2, align 8, !tbaa !3
  call void @CRYPTO_free(ptr noundef %30, ptr noundef @.str, i32 noundef 1853)
  store i32 0, ptr %4, align 4
  br label %31

31:                                               ; preds = %15, %14, %7
  call void @llvm.lifetime.end.p0(i64 4, ptr %3) #8
  %32 = load i32, ptr %4, align 4
  switch i32 %32, label %34 [
    i32 0, label %33
    i32 1, label %33
  ]

33:                                               ; preds = %31, %31
  ret void

34:                                               ; preds = %31
  unreachable
}

; Function Attrs: nounwind uwtable
define i32 @EVP_PKEY_set_type(ptr noundef %0, i32 noundef %1) #0 {
  %3 = alloca ptr, align 8
  %4 = alloca i32, align 4
  store ptr %0, ptr %3, align 8, !tbaa !3
  store i32 %1, ptr %4, align 4, !tbaa !8
  %5 = load ptr, ptr %3, align 8, !tbaa !3
  %6 = load i32, ptr %4, align 4, !tbaa !8
  %7 = call i32 @pkey_set_type(ptr noundef %5, ptr noundef null, i32 noundef %6, ptr noundef null, i32 noundef -1, ptr noundef null)
  ret i32 %7
}

; Function Attrs: nounwind uwtable
define ptr @EVP_PKEY_dup(ptr noundef %0) #0 {
  %2 = alloca ptr, align 8
  %3 = alloca ptr, align 8
  %4 = alloca ptr, align 8
  %5 = alloca i32, align 4
  %6 = alloca ptr, align 8
  store ptr %0, ptr %3, align 8, !tbaa !3
  call void @llvm.lifetime.start.p0(i64 8, ptr %4) #8
  %7 = load ptr, ptr %3, align 8, !tbaa !3
  %8 = icmp eq ptr %7, null
  br i1 %8, label %9, label %10

9:                                                ; preds = %1
  call void @ERR_new()
  call void @ERR_set_debug(ptr noundef @.str, i32 noundef 1722, ptr noundef @__func__.EVP_PKEY_dup)
  call void (i32, i32, ptr, ...) @ERR_set_error(i32 noundef 6, i32 noundef 786690, ptr noundef null)
  store ptr null, ptr %2, align 8
  store i32 1, ptr %5, align 4
  br label %112

10:                                               ; preds = %1
  %11 = call ptr @EVP_PKEY_new()
  store ptr %11, ptr %4, align 8, !tbaa !3
  %12 = icmp eq ptr %11, null
  br i1 %12, label %13, label %14

13:                                               ; preds = %10
  store ptr null, ptr %2, align 8
  store i32 1, ptr %5, align 4
  br label %112

14:                                               ; preds = %10
  %15 = load ptr, ptr %3, align 8, !tbaa !3
  %16 = getelementptr inbounds nuw %struct.evp_pkey_st, ptr %15, i32 0, i32 0
  %17 = load i32, ptr %16, align 8, !tbaa !29
  %18 = icmp eq i32 %17, 0
  br i1 %18, label %19, label %25

19:                                               ; preds = %14
  %20 = load ptr, ptr %3, align 8, !tbaa !3
  %21 = getelementptr inbounds nuw %struct.evp_pkey_st, ptr %20, i32 0, i32 13
  %22 = load ptr, ptr %21, align 8, !tbaa !32
  %23 = icmp eq ptr %22, null
  br i1 %23, label %24, label %25

24:                                               ; preds = %19
  br label %85

25:                                               ; preds = %19, %14
  %26 = load ptr, ptr %3, align 8, !tbaa !3
  %27 = getelementptr inbounds nuw %struct.evp_pkey_st, ptr %26, i32 0, i32 13
  %28 = load ptr, ptr %27, align 8, !tbaa !32
  %29 = icmp ne ptr %28, null
  br i1 %29, label %30, label %37

30:                                               ; preds = %25
  %31 = load ptr, ptr %4, align 8, !tbaa !3
  %32 = load ptr, ptr %3, align 8, !tbaa !3
  %33 = call i32 @evp_keymgmt_util_copy(ptr noundef %31, ptr noundef %32, i32 noundef 135)
  %34 = icmp ne i32 %33, 0
  br i1 %34, label %36, label %35

35:                                               ; preds = %30
  br label %110

36:                                               ; preds = %30
  br label %85

37:                                               ; preds = %25
  %38 = load ptr, ptr %3, align 8, !tbaa !3
  %39 = getelementptr inbounds nuw %struct.evp_pkey_st, ptr %38, i32 0, i32 0
  %40 = load i32, ptr %39, align 8, !tbaa !29
  %41 = icmp ne i32 %40, 0
  br i1 %41, label %42, label %84

42:                                               ; preds = %37
  %43 = load ptr, ptr %3, align 8, !tbaa !3
  %44 = getelementptr inbounds nuw %struct.evp_pkey_st, ptr %43, i32 0, i32 13
  %45 = load ptr, ptr %44, align 8, !tbaa !32
  %46 = icmp eq ptr %45, null
  br i1 %46, label %47, label %84

47:                                               ; preds = %42
  call void @llvm.lifetime.start.p0(i64 8, ptr %6) #8
  %48 = load ptr, ptr %3, align 8, !tbaa !3
  %49 = getelementptr inbounds nuw %struct.evp_pkey_st, ptr %48, i32 0, i32 2
  %50 = load ptr, ptr %49, align 8, !tbaa !23
  store ptr %50, ptr %6, align 8, !tbaa !70
  %51 = load ptr, ptr %6, align 8, !tbaa !70
  %52 = icmp eq ptr %51, null
  br i1 %52, label %58, label %53

53:                                               ; preds = %47
  %54 = load ptr, ptr %6, align 8, !tbaa !70
  %55 = getelementptr inbounds nuw %struct.evp_pkey_asn1_method_st, ptr %54, i32 0, i32 39
  %56 = load ptr, ptr %55, align 8, !tbaa !137
  %57 = icmp eq ptr %56, null
  br i1 %57, label %58, label %72

58:                                               ; preds = %53, %47
  %59 = load ptr, ptr %3, align 8, !tbaa !3
  %60 = getelementptr inbounds nuw %struct.evp_pkey_st, ptr %59, i32 0, i32 5
  %61 = load ptr, ptr %60, align 8, !tbaa !38
  %62 = icmp eq ptr %61, null
  br i1 %62, label %63, label %71

63:                                               ; preds = %58
  %64 = load ptr, ptr %4, align 8, !tbaa !3
  %65 = load ptr, ptr %3, align 8, !tbaa !3
  %66 = getelementptr inbounds nuw %struct.evp_pkey_st, ptr %65, i32 0, i32 0
  %67 = load i32, ptr %66, align 8, !tbaa !29
  %68 = call i32 @EVP_PKEY_set_type(ptr noundef %64, i32 noundef %67)
  %69 = icmp ne i32 %68, 0
  br i1 %69, label %70, label %71

70:                                               ; preds = %63
  store i32 2, ptr %5, align 4
  br label %82

71:                                               ; preds = %63, %58
  call void @ERR_new()
  call void @ERR_set_debug(ptr noundef @.str, i32 noundef 1750, ptr noundef @__func__.EVP_PKEY_dup)
  call void (i32, i32, ptr, ...) @ERR_set_error(i32 noundef 6, i32 noundef 224, ptr noundef null)
  store i32 3, ptr %5, align 4
  br label %82

72:                                               ; preds = %53
  %73 = load ptr, ptr %6, align 8, !tbaa !70
  %74 = getelementptr inbounds nuw %struct.evp_pkey_asn1_method_st, ptr %73, i32 0, i32 39
  %75 = load ptr, ptr %74, align 8, !tbaa !137
  %76 = load ptr, ptr %4, align 8, !tbaa !3
  %77 = load ptr, ptr %3, align 8, !tbaa !3
  %78 = call i32 %75(ptr noundef %76, ptr noundef %77)
  %79 = icmp ne i32 %78, 0
  br i1 %79, label %81, label %80

80:                                               ; preds = %72
  store i32 3, ptr %5, align 4
  br label %82

81:                                               ; preds = %72
  store i32 2, ptr %5, align 4
  br label %82

82:                                               ; preds = %81, %80, %71, %70
  call void @llvm.lifetime.end.p0(i64 8, ptr %6) #8
  %83 = load i32, ptr %5, align 4
  switch i32 %83, label %112 [
    i32 2, label %85
    i32 3, label %110
  ]

84:                                               ; preds = %42, %37
  br label %110

85:                                               ; preds = %82, %36, %24
  %86 = load ptr, ptr %4, align 8, !tbaa !3
  %87 = getelementptr inbounds nuw %struct.evp_pkey_st, ptr %86, i32 0, i32 12
  %88 = load ptr, ptr %3, align 8, !tbaa !3
  %89 = getelementptr inbounds nuw %struct.evp_pkey_st, ptr %88, i32 0, i32 12
  %90 = call i32 @CRYPTO_dup_ex_data(i32 noundef 17, ptr noundef %87, ptr noundef %89)
  %91 = icmp ne i32 %90, 0
  br i1 %91, label %93, label %92

92:                                               ; preds = %85
  br label %110

93:                                               ; preds = %85
  %94 = load ptr, ptr %3, align 8, !tbaa !3
  %95 = getelementptr inbounds nuw %struct.evp_pkey_st, ptr %94, i32 0, i32 9
  %96 = load ptr, ptr %95, align 8, !tbaa !65
  %97 = icmp ne ptr %96, null
  br i1 %97, label %98, label %108

98:                                               ; preds = %93
  %99 = load ptr, ptr %3, align 8, !tbaa !3
  %100 = getelementptr inbounds nuw %struct.evp_pkey_st, ptr %99, i32 0, i32 9
  %101 = load ptr, ptr %100, align 8, !tbaa !65
  %102 = call ptr @ossl_x509at_dup(ptr noundef %101)
  %103 = load ptr, ptr %4, align 8, !tbaa !3
  %104 = getelementptr inbounds nuw %struct.evp_pkey_st, ptr %103, i32 0, i32 9
  store ptr %102, ptr %104, align 8, !tbaa !65
  %105 = icmp eq ptr %102, null
  br i1 %105, label %106, label %107

106:                                              ; preds = %98
  br label %110

107:                                              ; preds = %98
  br label %108

108:                                              ; preds = %107, %93
  %109 = load ptr, ptr %4, align 8, !tbaa !3
  store ptr %109, ptr %2, align 8
  store i32 1, ptr %5, align 4
  br label %112

110:                                              ; preds = %82, %106, %92, %84, %35
  %111 = load ptr, ptr %4, align 8, !tbaa !3
  call void @EVP_PKEY_free(ptr noundef %111)
  store ptr null, ptr %2, align 8
  store i32 1, ptr %5, align 4
  br label %112

112:                                              ; preds = %110, %108, %82, %13, %9
  call void @llvm.lifetime.end.p0(i64 8, ptr %4) #8
  %113 = load ptr, ptr %2, align 8
  ret ptr %113
}