; Function Attrs: nounwind uwtable
define ptr @EVP_PKEY_dup(ptr noundef %0) local_unnamed_addr #0 {
  %2 = icmp eq ptr %0, null
  br i1 %2, label %3, label %4

3:                                                ; preds = %1
  tail call void @ERR_new() #12
  tail call void @ERR_set_debug(ptr noundef nonnull @.str, i32 noundef 1722, ptr noundef nonnull @__func__.EVP_PKEY_dup) #12
  tail call void (i32, i32, ptr, ...) @ERR_set_error(i32 noundef 6, i32 noundef 786690, ptr noundef null) #12
  br label %EVP_PKEY_free.exit

4:                                                ; preds = %1
  %5 = tail call ptr @EVP_PKEY_new()
  %6 = icmp eq ptr %5, null
  br i1 %6, label %EVP_PKEY_free.exit, label %7

7:                                                ; preds = %4
  %8 = load i32, ptr %0, align 8, !tbaa !26
  %9 = icmp eq i32 %8, 0
  %10 = getelementptr inbounds nuw i8, ptr %0, i64 96
  %11 = load ptr, ptr %10, align 8, !tbaa !30
  %12 = icmp eq ptr %11, null
  br i1 %9, label %13, label %.thread

13:                                               ; preds = %7
  br i1 %12, label %.thread40, label %14

.thread:                                          ; preds = %7
  br i1 %12, label %16, label %14

14:                                               ; preds = %13, %.thread
  %15 = tail call i32 @evp_keymgmt_util_copy(ptr noundef nonnull %5, ptr noundef nonnull %0, i32 noundef 135) #12
  %.not35 = icmp eq i32 %15, 0
  br i1 %.not35, label %42, label %.thread40

16:                                               ; preds = %.thread
  %17 = getelementptr inbounds nuw i8, ptr %0, i64 8
  %18 = load ptr, ptr %17, align 8, !tbaa !20
  %19 = icmp eq ptr %18, null
  br i1 %19, label %24, label %20

20:                                               ; preds = %16
  %21 = getelementptr inbounds nuw i8, ptr %18, i64 304
  %22 = load ptr, ptr %21, align 8, !tbaa !99
  %23 = icmp eq ptr %22, null
  br i1 %23, label %24, label %30

24:                                               ; preds = %20, %16
  %25 = getelementptr inbounds nuw i8, ptr %0, i64 32
  %26 = load ptr, ptr %25, align 8, !tbaa !39
  %27 = icmp eq ptr %26, null
  br i1 %27, label %28, label %.thread44

28:                                               ; preds = %24
  %29 = tail call fastcc range(i32 0, 2) i32 @pkey_set_type(ptr noundef nonnull %5, ptr noundef null, i32 noundef %8, ptr noundef null, i32 noundef -1, ptr noundef null)
  %.not34 = icmp eq i32 %29, 0
  br i1 %.not34, label %.thread44, label %.thread40

.thread44:                                        ; preds = %24, %28
  tail call void @ERR_new() #12
  tail call void @ERR_set_debug(ptr noundef nonnull @.str, i32 noundef 1750, ptr noundef nonnull @__func__.EVP_PKEY_dup) #12
  tail call void (i32, i32, ptr, ...) @ERR_set_error(i32 noundef 6, i32 noundef 224, ptr noundef null) #12
  br label %42

30:                                               ; preds = %20
  %31 = tail call i32 %22(ptr noundef nonnull %5, ptr noundef nonnull %0) #12
  %.not33 = icmp eq i32 %31, 0
  br i1 %.not33, label %42, label %.thread40

.thread40:                                        ; preds = %28, %30, %14, %13
  %32 = getelementptr inbounds nuw i8, ptr %5, i64 80
  %33 = getelementptr inbounds nuw i8, ptr %0, i64 80
  %34 = tail call i32 @CRYPTO_dup_ex_data(i32 noundef 17, ptr noundef nonnull %32, ptr noundef nonnull %33) #12
  %.not36 = icmp eq i32 %34, 0
  br i1 %.not36, label %42, label %35

35:                                               ; preds = %.thread40
  %36 = getelementptr inbounds nuw i8, ptr %0, i64 64
  %37 = load ptr, ptr %36, align 8, !tbaa !37
  %.not37 = icmp eq ptr %37, null
  br i1 %.not37, label %EVP_PKEY_free.exit, label %38

38:                                               ; preds = %35
  %39 = tail call ptr @ossl_x509at_dup(ptr noundef nonnull %37) #12
  %40 = getelementptr inbounds nuw i8, ptr %5, i64 64
  store ptr %39, ptr %40, align 8, !tbaa !37
  %41 = icmp eq ptr %39, null
  br i1 %41, label %42, label %EVP_PKEY_free.exit

42:                                               ; preds = %14, %.thread40, %38, %30, %.thread44
  %43 = getelementptr inbounds nuw i8, ptr %5, i64 48
  %44 = atomicrmw sub ptr %43, i32 1 release, align 4
  %45 = icmp eq i32 %44, 1
  br i1 %45, label %CRYPTO_DOWN_REF.exit.thread.i, label %CRYPTO_DOWN_REF.exit.i

CRYPTO_DOWN_REF.exit.thread.i:                    ; preds = %42
  fence acquire
  br label %47

CRYPTO_DOWN_REF.exit.i:                           ; preds = %42
  %46 = icmp sgt i32 %44, 1
  br i1 %46, label %EVP_PKEY_free.exit, label %47

47:                                               ; preds = %CRYPTO_DOWN_REF.exit.i, %CRYPTO_DOWN_REF.exit.thread.i
  tail call fastcc void @evp_pkey_free_it(ptr noundef nonnull %5)
  %48 = getelementptr inbounds nuw i8, ptr %5, i64 80
  tail call void @CRYPTO_free_ex_data(i32 noundef 17, ptr noundef nonnull %5, ptr noundef nonnull %48) #12
  %49 = getelementptr inbounds nuw i8, ptr %5, i64 56
  %50 = load ptr, ptr %49, align 8, !tbaa !36
  tail call void @CRYPTO_THREAD_lock_free(ptr noundef %50) #12
  %51 = getelementptr inbounds nuw i8, ptr %5, i64 64
  %52 = load ptr, ptr %51, align 8, !tbaa !37
  tail call void @OPENSSL_sk_pop_free(ptr noundef %52, ptr noundef nonnull @X509_ATTRIBUTE_free) #12
  tail call void @CRYPTO_free(ptr noundef nonnull %5, ptr noundef nonnull @.str, i32 noundef 1853) #12
  br label %EVP_PKEY_free.exit

EVP_PKEY_free.exit:                               ; preds = %47, %CRYPTO_DOWN_REF.exit.i, %35, %38, %4, %3
  %.0 = phi ptr [ null, %3 ], [ null, %4 ], [ %5, %38 ], [ %5, %35 ], [ null, %CRYPTO_DOWN_REF.exit.i ], [ null, %47 ]
  ret ptr %.0
}